; Function Attrs: mustprogress uwtable
define hidden void @_ZN11hwf_manager18to_rational_stringB5cxx11ERK3hwf(ptr dead_on_unwind noalias writable sret(%"class.std::__cxx11::basic_string") align 8 %0, ptr noundef nonnull readnone align 8 captures(none) dereferenceable(736) %1, ptr noundef nonnull readonly align 8 captures(none) dereferenceable(8) %2) local_unnamed_addr #3 align 2 personality ptr @__gxx_personality_v0 {
  %4 = alloca %class.mpq_manager, align 8
  %5 = alloca %class._scoped_numeral, align 8
  call void @llvm.lifetime.start.p0(i64 728, ptr nonnull %4) #24
  call void @_ZN11mpz_managerILb0EEC2Ev(ptr noundef nonnull align 8 dereferenceable(728) %4)
  %6 = getelementptr inbounds nuw i8, ptr %4, i64 600
  store i32 0, ptr %6, align 8, !tbaa !3
  %7 = getelementptr inbounds nuw i8, ptr %4, i64 604
  %8 = load i8, ptr %7, align 4
  %9 = and i8 %8, -4
  store i8 %9, ptr %7, align 4
  %10 = getelementptr inbounds nuw i8, ptr %4, i64 608
  store ptr null, ptr %10, align 8, !tbaa !10
  %11 = getelementptr inbounds nuw i8, ptr %4, i64 616
  store i32 0, ptr %11, align 8, !tbaa !3
  %12 = getelementptr inbounds nuw i8, ptr %4, i64 620
  %13 = load i8, ptr %12, align 4
  %14 = and i8 %13, -4
  store i8 %14, ptr %12, align 4
  %15 = getelementptr inbounds nuw i8, ptr %4, i64 624
  store ptr null, ptr %15, align 8, !tbaa !10
  %16 = getelementptr inbounds nuw i8, ptr %4, i64 632
  store i32 0, ptr %16, align 8, !tbaa !3
  %17 = getelementptr inbounds nuw i8, ptr %4, i64 636
  %18 = load i8, ptr %17, align 4
  %19 = and i8 %18, -4
  store i8 %19, ptr %17, align 4
  %20 = getelementptr inbounds nuw i8, ptr %4, i64 640
  store ptr null, ptr %20, align 8, !tbaa !10
  %21 = getelementptr inbounds nuw i8, ptr %4, i64 648
  store i32 0, ptr %21, align 8, !tbaa !3
  %22 = getelementptr inbounds nuw i8, ptr %4, i64 652
  %23 = load i8, ptr %22, align 4
  %24 = and i8 %23, -4
  store i8 %24, ptr %22, align 4
  %25 = getelementptr inbounds nuw i8, ptr %4, i64 656
  store ptr null, ptr %25, align 8, !tbaa !10
  %26 = getelementptr inbounds nuw i8, ptr %4, i64 664
  store i32 0, ptr %26, align 8, !tbaa !3
  %27 = getelementptr inbounds nuw i8, ptr %4, i64 668
  %28 = load i8, ptr %27, align 4
  %29 = and i8 %28, -4
  store i8 %29, ptr %27, align 4
  %30 = getelementptr inbounds nuw i8, ptr %4, i64 672
  store ptr null, ptr %30, align 8, !tbaa !10
  %31 = getelementptr inbounds nuw i8, ptr %4, i64 680
  store i32 1, ptr %31, align 8, !tbaa !3
  %32 = getelementptr inbounds nuw i8, ptr %4, i64 684
  %33 = load i8, ptr %32, align 4
  %34 = and i8 %33, -4
  store i8 %34, ptr %32, align 4
  %35 = getelementptr inbounds nuw i8, ptr %4, i64 688
  store ptr null, ptr %35, align 8, !tbaa !10
  %36 = getelementptr inbounds nuw i8, ptr %4, i64 696
  store i32 0, ptr %36, align 8, !tbaa !3
  %37 = getelementptr inbounds nuw i8, ptr %4, i64 700
  %38 = load i8, ptr %37, align 4
  %39 = and i8 %38, -4
  store i8 %39, ptr %37, align 4
  %40 = getelementptr inbounds nuw i8, ptr %4, i64 704
  store ptr null, ptr %40, align 8, !tbaa !10
  %41 = getelementptr inbounds nuw i8, ptr %4, i64 712
  store i32 1, ptr %41, align 8, !tbaa !3
  %42 = getelementptr inbounds nuw i8, ptr %4, i64 716
  %43 = load i8, ptr %42, align 4
  %44 = and i8 %43, -4
  store i8 %44, ptr %42, align 4
  %45 = getelementptr inbounds nuw i8, ptr %4, i64 720
  store ptr null, ptr %45, align 8, !tbaa !10
  call void @llvm.lifetime.start.p0(i64 40, ptr nonnull %5) #24
  store ptr %4, ptr %5, align 8, !tbaa !67
  %46 = getelementptr inbounds nuw i8, ptr %5, i64 8
  store i32 0, ptr %46, align 8, !tbaa !3
  %47 = getelementptr inbounds nuw i8, ptr %5, i64 12
  store i8 0, ptr %47, align 4
  %48 = getelementptr inbounds nuw i8, ptr %5, i64 16
  store ptr null, ptr %48, align 8, !tbaa !10
  %49 = getelementptr inbounds nuw i8, ptr %5, i64 24
  store i32 1, ptr %49, align 8, !tbaa !3
  %50 = getelementptr inbounds nuw i8, ptr %5, i64 28
  store i8 0, ptr %50, align 4
  %51 = getelementptr inbounds nuw i8, ptr %5, i64 32
  store ptr null, ptr %51, align 8, !tbaa !10
  invoke void @_ZN11hwf_manager11to_rationalERK3hwfR11mpq_managerILb0EER3mpq(ptr nonnull align 8 poison, ptr noundef nonnull align 8 dereferenceable(8) %2, ptr noundef nonnull align 8 dereferenceable(728) %4, ptr noundef nonnull align 8 dereferenceable(32) %46)
          to label %_ZN11hwf_manager11to_rationalERK3hwfR15_scoped_numeralI11mpq_managerILb0EEE.exit unwind label %57

_ZN11hwf_manager11to_rationalERK3hwfR15_scoped_numeralI11mpq_managerILb0EEE.exit: ; preds = %3
  invoke void @_ZNK11mpq_managerILb0EE9to_stringB5cxx11ERK3mpq(ptr dead_on_unwind writable sret(%"class.std::__cxx11::basic_string") align 8 %0, ptr noundef nonnull align 8 dereferenceable(728) %4, ptr noundef nonnull align 8 dereferenceable(32) %46)
          to label %52 unwind label %57

52:                                               ; preds = %_ZN11hwf_manager11to_rationalERK3hwfR15_scoped_numeralI11mpq_managerILb0EEE.exit
  %53 = load ptr, ptr %5, align 8, !tbaa !69
  invoke void @_ZN11mpz_managerILb0EE3delEPS0_R3mpz(ptr noundef nonnull align 8 dereferenceable(728) %53, ptr noundef nonnull align 8 dereferenceable(32) %46)
          to label %.noexc.i unwind label %54

.noexc.i:                                         ; preds = %52
  invoke void @_ZN11mpz_managerILb0EE3delEPS0_R3mpz(ptr noundef nonnull align 8 dereferenceable(728) %53, ptr noundef nonnull align 8 dereferenceable(16) %49)
          to label %_ZN15_scoped_numeralI11mpq_managerILb0EEED2Ev.exit unwind label %54

54:                                               ; preds = %.noexc.i, %52
  %55 = landingpad { ptr, i32 }
          catch ptr null
  %56 = extractvalue { ptr, i32 } %55, 0
  call void @__clang_call_terminate(ptr %56) #28
  unreachable

_ZN15_scoped_numeralI11mpq_managerILb0EEED2Ev.exit: ; preds = %.noexc.i
  call void @llvm.lifetime.end.p0(i64 40, ptr nonnull %5) #24
  call void @_ZN11mpq_managerILb0EED1Ev(ptr noundef nonnull align 8 dereferenceable(728) %4) #24
  call void @llvm.lifetime.end.p0(i64 728, ptr nonnull %4) #24
  ret void

57:                                               ; preds = %3, %_ZN11hwf_manager11to_rationalERK3hwfR15_scoped_numeralI11mpq_managerILb0EEE.exit
  %58 = landingpad { ptr, i32 }
          cleanup
  call void @_ZN15_scoped_numeralI11mpq_managerILb0EEED2Ev(ptr noundef nonnull align 8 dereferenceable(40) %5) #24
  call void @llvm.lifetime.end.p0(i64 40, ptr nonnull %5) #24
  call void @_ZN11mpq_managerILb0EED1Ev(ptr noundef nonnull align 8 dereferenceable(728) %4) #24
  call void @llvm.lifetime.end.p0(i64 728, ptr nonnull %4) #24
  resume { ptr, i32 } %58
}